; Function Attrs: mustprogress nofree norecurse nosync nounwind willreturn memory(argmem: readwrite) uwtable
define dso_local void @COVER_best_start(ptr noundef %0) local_unnamed_addr #11 {
  %.not = icmp eq ptr %0, null
  br i1 %.not, label %6, label %2

2:                                                ; preds = %1
  %3 = getelementptr inbounds nuw i8, ptr %0, i64 8
  %4 = load i64, ptr %3, align 8, !tbaa !62
  %5 = add i64 %4, 1
  store i64 %5, ptr %3, align 8, !tbaa !62
  br label %6

6:                                                ; preds = %1, %2
  ret void
}